target datalayout = "e-m:e-p270:32:32-p271:32:32-p272:64:64-i64:64-i128:128-f80:128-n8:16:32:64-S128"
target triple = "x86_64-pc-linux-gnu"

; Function Attrs: nounwind uwtable
define dso_local ptr @makeObjectName(ptr noundef %0, ptr noundef %1, ptr noundef %2) #0 {
  %4 = alloca ptr, align 8
  %5 = alloca ptr, align 8
  %6 = alloca ptr, align 8
  %7 = alloca ptr, align 8
  %8 = alloca i32, align 4
  %9 = alloca i32, align 4
  %10 = alloca i32, align 4
  %11 = alloca i32, align 4
  %12 = alloca i32, align 4
  store ptr %0, ptr %4, align 8
  store ptr %1, ptr %5, align 8
  store ptr %2, ptr %6, align 8
  call void @llvm.lifetime.start.p0(i64 8, ptr %7) #10
  call void @llvm.lifetime.start.p0(i64 4, ptr %8) #10
  store i32 0, ptr %8, align 4
  call void @llvm.lifetime.start.p0(i64 4, ptr %9) #10
  call void @llvm.lifetime.start.p0(i64 4, ptr %10) #10
  call void @llvm.lifetime.start.p0(i64 4, ptr %11) #10
  call void @llvm.lifetime.start.p0(i64 4, ptr %12) #10
  %13 = load ptr, ptr %4, align 8
  %14 = call i64 @strlen(ptr noundef %13) #12
  %15 = trunc i64 %14 to i32
  store i32 %15, ptr %10, align 4
  %16 = load ptr, ptr %5, align 8
  %17 = icmp ne ptr %16, null
  br i1 %17, label %18, label %24

18:                                               ; preds = %3
  %19 = load ptr, ptr %5, align 8
  %20 = call i64 @strlen(ptr noundef %19) #12
  %21 = trunc i64 %20 to i32
  store i32 %21, ptr %11, align 4
  %22 = load i32, ptr %8, align 4
  %23 = add i32 %22, 1
  store i32 %23, ptr %8, align 4
  br label %25

24:                                               ; preds = %3
  store i32 0, ptr %11, align 4
  br label %25

25:                                               ; preds = %24, %18
  %26 = load ptr, ptr %6, align 8
  %27 = icmp ne ptr %26, null
  br i1 %27, label %28, label %36

28:                                               ; preds = %25
  %29 = load ptr, ptr %6, align 8
  %30 = call i64 @strlen(ptr noundef %29) #12
  %31 = add i64 %30, 1
  %32 = load i32, ptr %8, align 4
  %33 = sext i32 %32 to i64
  %34 = add i64 %33, %31
  %35 = trunc i64 %34 to i32
  store i32 %35, ptr %8, align 4
  br label %36

36:                                               ; preds = %28, %25
  %37 = load i32, ptr %8, align 4
  %38 = sub i32 63, %37
  store i32 %38, ptr %9, align 4
  br label %39

39:                                               ; preds = %55, %36
  %40 = load i32, ptr %10, align 4
  %41 = load i32, ptr %11, align 4
  %42 = add i32 %40, %41
  %43 = load i32, ptr %9, align 4
  %44 = icmp sgt i32 %42, %43
  br i1 %44, label %45, label %56

45:                                               ; preds = %39
  %46 = load i32, ptr %10, align 4
  %47 = load i32, ptr %11, align 4
  %48 = icmp sgt i32 %46, %47
  br i1 %48, label %49, label %52

49:                                               ; preds = %45
  %50 = load i32, ptr %10, align 4
  %51 = add i32 %50, -1
  store i32 %51, ptr %10, align 4
  br label %55

52:                                               ; preds = %45
  %53 = load i32, ptr %11, align 4
  %54 = add i32 %53, -1
  store i32 %54, ptr %11, align 4
  br label %55

55:                                               ; preds = %52, %49
  br label %39, !llvm.loop !26

56:                                               ; preds = %39
  %57 = load ptr, ptr %4, align 8
  %58 = load i32, ptr %10, align 4
  %59 = load i32, ptr %10, align 4
  %60 = call i32 @pg_mbcliplen(ptr noundef %57, i32 noundef %58, i32 noundef %59)
  store i32 %60, ptr %10, align 4
  %61 = load ptr, ptr %5, align 8
  %62 = icmp ne ptr %61, null
  br i1 %62, label %63, label %68

63:                                               ; preds = %56
  %64 = load ptr, ptr %5, align 8
  %65 = load i32, ptr %11, align 4
  %66 = load i32, ptr %11, align 4
  %67 = call i32 @pg_mbcliplen(ptr noundef %64, i32 noundef %65, i32 noundef %66)
  store i32 %67, ptr %11, align 4
  br label %68

68:                                               ; preds = %63, %56
  %69 = load i32, ptr %10, align 4
  %70 = load i32, ptr %11, align 4
  %71 = add i32 %69, %70
  %72 = load i32, ptr %8, align 4
  %73 = add i32 %71, %72
  %74 = add i32 %73, 1
  %75 = sext i32 %74 to i64
  %76 = call ptr @palloc(i64 noundef %75)
  store ptr %76, ptr %7, align 8
  %77 = load ptr, ptr %7, align 8
  %78 = load ptr, ptr %4, align 8
  %79 = load i32, ptr %10, align 4
  %80 = sext i32 %79 to i64
  call void @llvm.memcpy.p0.p0.i64(ptr align 1 %77, ptr align 1 %78, i64 %80, i1 false)
  %81 = load i32, ptr %10, align 4
  store i32 %81, ptr %12, align 4
  %82 = load ptr, ptr %5, align 8
  %83 = icmp ne ptr %82, null
  br i1 %83, label %84, label %100

84:                                               ; preds = %68
  %85 = load ptr, ptr %7, align 8
  %86 = load i32, ptr %12, align 4
  %87 = add i32 %86, 1
  store i32 %87, ptr %12, align 4
  %88 = sext i32 %86 to i64
  %89 = getelementptr inbounds i8, ptr %85, i64 %88
  store i8 95, ptr %89, align 1
  %90 = load ptr, ptr %7, align 8
  %91 = load i32, ptr %12, align 4
  %92 = sext i32 %91 to i64
  %93 = getelementptr inbounds i8, ptr %90, i64 %92
  %94 = load ptr, ptr %5, align 8
  %95 = load i32, ptr %11, align 4
  %96 = sext i32 %95 to i64
  call void @llvm.memcpy.p0.p0.i64(ptr align 1 %93, ptr align 1 %94, i64 %96, i1 false)
  %97 = load i32, ptr %11, align 4
  %98 = load i32, ptr %12, align 4
  %99 = add i32 %98, %97
  store i32 %99, ptr %12, align 4
  br label %100

100:                                              ; preds = %84, %68
  %101 = load ptr, ptr %6, align 8
  %102 = icmp ne ptr %101, null
  br i1 %102, label %103, label %115

103:                                              ; preds = %100
  %104 = load ptr, ptr %7, align 8
  %105 = load i32, ptr %12, align 4
  %106 = add i32 %105, 1
  store i32 %106, ptr %12, align 4
  %107 = sext i32 %105 to i64
  %108 = getelementptr inbounds i8, ptr %104, i64 %107
  store i8 95, ptr %108, align 1
  %109 = load ptr, ptr %7, align 8
  %110 = load i32, ptr %12, align 4
  %111 = sext i32 %110 to i64
  %112 = getelementptr inbounds i8, ptr %109, i64 %111
  %113 = load ptr, ptr %6, align 8
  %114 = call ptr @strcpy(ptr noundef %112, ptr noundef %113) #10
  br label %120

115:                                              ; preds = %100
  %116 = load ptr, ptr %7, align 8
  %117 = load i32, ptr %12, align 4
  %118 = sext i32 %117 to i64
  %119 = getelementptr inbounds i8, ptr %116, i64 %118
  store i8 0, ptr %119, align 1
  br label %120

120:                                              ; preds = %115, %103
  %121 = load ptr, ptr %7, align 8
  call void @llvm.lifetime.end.p0(i64 4, ptr %12) #10
  call void @llvm.lifetime.end.p0(i64 4, ptr %11) #10
  call void @llvm.lifetime.end.p0(i64 4, ptr %10) #10
  call void @llvm.lifetime.end.p0(i64 4, ptr %9) #10
  call void @llvm.lifetime.end.p0(i64 4, ptr %8) #10
  call void @llvm.lifetime.end.p0(i64 8, ptr %7) #10
  ret ptr %121
}