; Function Attrs: nounwind uwtable
define dso_local ptr @makeObjectName(ptr noundef %0, ptr noundef %1, ptr noundef readonly captures(address_is_null) %2) local_unnamed_addr #0 {
  %4 = tail call i64 @strlen(ptr noundef nonnull dereferenceable(1) %0) #13
  %5 = trunc i64 %4 to i32
  %.not = icmp eq ptr %1, null
  br i1 %.not, label %9, label %6

6:                                                ; preds = %3
  %7 = tail call i64 @strlen(ptr noundef nonnull dereferenceable(1) %1) #13
  %8 = trunc i64 %7 to i32
  br label %9

9:                                                ; preds = %3, %6
  %.049 = phi i32 [ 1, %6 ], [ 0, %3 ]
  %.046 = phi i32 [ %8, %6 ], [ 0, %3 ]
  %.not56 = icmp eq ptr %2, null
  br i1 %.not56, label %15, label %10

10:                                               ; preds = %9
  %11 = tail call i64 @strlen(ptr noundef nonnull dereferenceable(1) %2) #13
  %12 = trunc i64 %11 to i32
  %13 = add nuw nsw i32 %.049, 1
  %14 = add i32 %13, %12
  br label %15

15:                                               ; preds = %10, %9
  %.150 = phi i32 [ %14, %10 ], [ %.049, %9 ]
  %16 = sub i32 63, %.150
  %17 = add i32 %.046, %5
  %18 = icmp sgt i32 %17, %16
  br i1 %18, label %.lr.ph, label %._crit_edge

.lr.ph:                                           ; preds = %15, %.lr.ph
  %.158 = phi i32 [ %.2, %.lr.ph ], [ %.046, %15 ]
  %.04757 = phi i32 [ %.148, %.lr.ph ], [ %5, %15 ]
  %19 = icmp sgt i32 %.04757, %.158
  %20 = sext i1 %19 to i32
  %.148 = add i32 %.04757, %20
  %not. = xor i1 %19, true
  %21 = sext i1 %not. to i32
  %.2 = add i32 %.158, %21
  %22 = add i32 %.2, %.148
  %23 = icmp sgt i32 %22, %16
  br i1 %23, label %.lr.ph, label %._crit_edge, !llvm.loop !22

._crit_edge:                                      ; preds = %.lr.ph, %15
  %.047.lcssa = phi i32 [ %5, %15 ], [ %.148, %.lr.ph ]
  %.1.lcssa = phi i32 [ %.046, %15 ], [ %.2, %.lr.ph ]
  %24 = tail call i32 @pg_mbcliplen(ptr noundef nonnull %0, i32 noundef %.047.lcssa, i32 noundef %.047.lcssa) #11
  br i1 %.not, label %27, label %25

25:                                               ; preds = %._crit_edge
  %26 = tail call i32 @pg_mbcliplen(ptr noundef nonnull %1, i32 noundef %.1.lcssa, i32 noundef %.1.lcssa) #11
  br label %27

27:                                               ; preds = %25, %._crit_edge
  %.3 = phi i32 [ %26, %25 ], [ %.1.lcssa, %._crit_edge ]
  %28 = add i32 %.150, 1
  %29 = add i32 %28, %24
  %30 = add i32 %29, %.3
  %31 = sext i32 %30 to i64
  %32 = tail call ptr @palloc(i64 noundef %31) #11
  %33 = sext i32 %24 to i64
  tail call void @llvm.memcpy.p0.p0.i64(ptr align 1 %32, ptr nonnull align 1 %0, i64 %33, i1 false)
  br i1 %.not, label %41, label %34

34:                                               ; preds = %27
  %35 = add i32 %24, 1
  %36 = getelementptr inbounds i8, ptr %32, i64 %33
  store i8 95, ptr %36, align 1
  %37 = sext i32 %35 to i64
  %38 = getelementptr inbounds i8, ptr %32, i64 %37
  %39 = sext i32 %.3 to i64
  tail call void @llvm.memcpy.p0.p0.i64(ptr align 1 %38, ptr nonnull align 1 %1, i64 %39, i1 false)
  %40 = add i32 %.3, %35
  br label %41

41:                                               ; preds = %34, %27
  %.0 = phi i32 [ %40, %34 ], [ %24, %27 ]
  br i1 %.not56, label %49, label %42

42:                                               ; preds = %41
  %43 = add i32 %.0, 1
  %44 = sext i32 %.0 to i64
  %45 = getelementptr inbounds i8, ptr %32, i64 %44
  store i8 95, ptr %45, align 1
  %46 = sext i32 %43 to i64
  %47 = getelementptr inbounds i8, ptr %32, i64 %46
  %48 = tail call ptr @strcpy(ptr noundef nonnull dereferenceable(1) %47, ptr noundef nonnull dereferenceable(1) %2) #11
  br label %52

49:                                               ; preds = %41
  %50 = sext i32 %.0 to i64
  %51 = getelementptr inbounds i8, ptr %32, i64 %50
  store i8 0, ptr %51, align 1
  br label %52

52:                                               ; preds = %49, %42
  ret ptr %32
}